target datalayout = "e-m:e-p270:32:32-p271:32:32-p272:64:64-i64:64-i128:128-f80:128-n8:16:32:64-S128"
target triple = "x86_64-pc-linux-gnu"

%struct.grep_source = type { ptr, i32, ptr, ptr, ptr, i64, ptr, ptr }
%struct.object_id = type { [32 x i8], i32 }

; Function Attrs: inlinehint nounwind uwtable
define internal void @oidcpy(ptr noundef %0, ptr noundef %1) #2 {
  %3 = alloca ptr, align 8
  %4 = alloca ptr, align 8
  store ptr %0, ptr %3, align 8, !tbaa !137
  store ptr %1, ptr %4, align 8, !tbaa !137
  %5 = load ptr, ptr %3, align 8, !tbaa !137
  %6 = getelementptr inbounds nuw %struct.object_id, ptr %5, i32 0, i32 0
  %7 = getelementptr inbounds [32 x i8], ptr %6, i64 0, i64 0
  %8 = load ptr, ptr %4, align 8, !tbaa !137
  %9 = getelementptr inbounds nuw %struct.object_id, ptr %8, i32 0, i32 0
  %10 = getelementptr inbounds [32 x i8], ptr %9, i64 0, i64 0
  call void @llvm.memcpy.p0.p0.i64(ptr align 4 %7, ptr align 4 %10, i64 32, i1 false)
  %11 = load ptr, ptr %4, align 8, !tbaa !137
  %12 = getelementptr inbounds nuw %struct.object_id, ptr %11, i32 0, i32 1
  %13 = load i32, ptr %12, align 4, !tbaa !193
  %14 = load ptr, ptr %3, align 8, !tbaa !137
  %15 = getelementptr inbounds nuw %struct.object_id, ptr %14, i32 0, i32 1
  store i32 %13, ptr %15, align 4, !tbaa !193
  ret void
}

; Function Attrs: inlinehint nounwind uwtable
define internal ptr @oiddup(ptr noundef %0) #2 {
  %2 = alloca ptr, align 8
  %3 = alloca ptr, align 8
  store ptr %0, ptr %2, align 8, !tbaa !137
  call void @llvm.lifetime.start.p0(i64 8, ptr %3) #11
  %4 = call ptr @xmalloc(i64 noundef 36)
  store ptr %4, ptr %3, align 8, !tbaa !137
  %5 = load ptr, ptr %3, align 8, !tbaa !137
  %6 = load ptr, ptr %2, align 8, !tbaa !137
  call void @oidcpy(ptr noundef %5, ptr noundef %6)
  %7 = load ptr, ptr %3, align 8, !tbaa !137
  call void @llvm.lifetime.end.p0(i64 8, ptr %3) #11
  ret ptr %7
}

; Function Attrs: inlinehint nounwind uwtable
define internal ptr @xstrdup_or_null(ptr noundef %0) #2 {
  %2 = alloca ptr, align 8
  store ptr %0, ptr %2, align 8, !tbaa !9
  %3 = load ptr, ptr %2, align 8, !tbaa !9
  %4 = icmp ne ptr %3, null
  br i1 %4, label %5, label %8

5:                                                ; preds = %1
  %6 = load ptr, ptr %2, align 8, !tbaa !9
  %7 = call ptr @xstrdup(ptr noundef %6)
  br label %9

8:                                                ; preds = %1
  br label %9

9:                                                ; preds = %8, %5
  %10 = phi ptr [ %7, %5 ], [ null, %8 ]
  ret ptr %10
}

; Function Attrs: nounwind uwtable
define dso_local void @grep_source_init_oid(ptr noundef %0, ptr noundef %1, ptr noundef %2, ptr noundef %3, ptr noundef %4) #0 {
  %6 = alloca ptr, align 8
  %7 = alloca ptr, align 8
  %8 = alloca ptr, align 8
  %9 = alloca ptr, align 8
  %10 = alloca ptr, align 8
  store ptr %0, ptr %6, align 8, !tbaa !85
  store ptr %1, ptr %7, align 8, !tbaa !9
  store ptr %2, ptr %8, align 8, !tbaa !9
  store ptr %3, ptr %9, align 8, !tbaa !137
  store ptr %4, ptr %10, align 8, !tbaa !38
  %11 = load ptr, ptr %6, align 8, !tbaa !85
  %12 = getelementptr inbounds nuw %struct.grep_source, ptr %11, i32 0, i32 1
  store i32 0, ptr %12, align 8, !tbaa !134
  %13 = load ptr, ptr %7, align 8, !tbaa !9
  %14 = call ptr @xstrdup_or_null(ptr noundef %13)
  %15 = load ptr, ptr %6, align 8, !tbaa !85
  %16 = getelementptr inbounds nuw %struct.grep_source, ptr %15, i32 0, i32 0
  store ptr %14, ptr %16, align 8, !tbaa !91
  %17 = load ptr, ptr %8, align 8, !tbaa !9
  %18 = call ptr @xstrdup_or_null(ptr noundef %17)
  %19 = load ptr, ptr %6, align 8, !tbaa !85
  %20 = getelementptr inbounds nuw %struct.grep_source, ptr %19, i32 0, i32 6
  store ptr %18, ptr %20, align 8, !tbaa !135
  %21 = load ptr, ptr %6, align 8, !tbaa !85
  %22 = getelementptr inbounds nuw %struct.grep_source, ptr %21, i32 0, i32 4
  store ptr null, ptr %22, align 8, !tbaa !122
  %23 = load ptr, ptr %6, align 8, !tbaa !85
  %24 = getelementptr inbounds nuw %struct.grep_source, ptr %23, i32 0, i32 5
  store i64 0, ptr %24, align 8, !tbaa !123
  %25 = load ptr, ptr %6, align 8, !tbaa !85
  %26 = getelementptr inbounds nuw %struct.grep_source, ptr %25, i32 0, i32 7
  store ptr null, ptr %26, align 8, !tbaa !119
  %27 = load ptr, ptr %9, align 8, !tbaa !137
  %28 = call ptr @oiddup(ptr noundef %27)
  %29 = load ptr, ptr %6, align 8, !tbaa !85
  %30 = getelementptr inbounds nuw %struct.grep_source, ptr %29, i32 0, i32 2
  store ptr %28, ptr %30, align 8, !tbaa !136
  %31 = load ptr, ptr %10, align 8, !tbaa !38
  %32 = load ptr, ptr %6, align 8, !tbaa !85
  %33 = getelementptr inbounds nuw %struct.grep_source, ptr %32, i32 0, i32 3
  store ptr %31, ptr %33, align 8, !tbaa !139
  ret void
}