; Function Attrs: nounwind uwtable
define dso_local void @grep_source_init_oid(ptr noundef writeonly captures(none) initializes((0, 12), (16, 64)) %0, ptr noundef %1, ptr noundef %2, ptr noundef readonly captures(none) %3, ptr noundef %4) local_unnamed_addr #0 {
  %6 = getelementptr inbounds nuw i8, ptr %0, i64 8
  store i32 0, ptr %6, align 8, !tbaa !117
  %.not.i = icmp eq ptr %1, null
  br i1 %.not.i, label %xstrdup_or_null.exit, label %7

7:                                                ; preds = %5
  %8 = tail call ptr @xstrdup(ptr noundef nonnull %1) #18
  br label %xstrdup_or_null.exit

xstrdup_or_null.exit:                             ; preds = %5, %7
  %9 = phi ptr [ %8, %7 ], [ null, %5 ]
  store ptr %9, ptr %0, align 8, !tbaa !77
  %.not.i12 = icmp eq ptr %2, null
  br i1 %.not.i12, label %xstrdup_or_null.exit13, label %10

10:                                               ; preds = %xstrdup_or_null.exit
  %11 = tail call ptr @xstrdup(ptr noundef nonnull %2) #18
  br label %xstrdup_or_null.exit13

xstrdup_or_null.exit13:                           ; preds = %xstrdup_or_null.exit, %10
  %12 = phi ptr [ %11, %10 ], [ null, %xstrdup_or_null.exit ]
  %13 = getelementptr inbounds nuw i8, ptr %0, i64 48
  store ptr %12, ptr %13, align 8, !tbaa !107
  %14 = getelementptr inbounds nuw i8, ptr %0, i64 32
  %15 = getelementptr inbounds nuw i8, ptr %0, i64 56
  store ptr null, ptr %15, align 8, !tbaa !106
  tail call void @llvm.memset.p0.i64(ptr noundef nonnull align 8 dereferenceable(16) %14, i8 0, i64 16, i1 false)
  %16 = tail call ptr @xmalloc(i64 noundef 36) #18
  tail call void @llvm.memcpy.p0.p0.i64(ptr noundef nonnull align 4 dereferenceable(32) %16, ptr noundef nonnull readonly align 4 dereferenceable(32) %3, i64 32, i1 false)
  %17 = getelementptr inbounds nuw i8, ptr %3, i64 32
  %18 = load i32, ptr %17, align 4, !tbaa !140
  %19 = getelementptr inbounds nuw i8, ptr %16, i64 32
  store i32 %18, ptr %19, align 4, !tbaa !140
  %20 = getelementptr inbounds nuw i8, ptr %0, i64 16
  store ptr %16, ptr %20, align 8, !tbaa !118
  %21 = getelementptr inbounds nuw i8, ptr %0, i64 24
  store ptr %4, ptr %21, align 8, !tbaa !142
  ret void
}